; Listing generated by Microsoft (R) Optimizing Compiler Version 19.26.28805.0 

	TITLE	D:\VS2019Projects\C++\Helloworld\Helloworld\Log.cpp
	.686P
	.XMM
	include listing.inc
	.model	flat

INCLUDELIB MSVCRTD
INCLUDELIB OLDNAMES

msvcjmc	SEGMENT
__68CC8892_vcruntime_new@h DB 01H
__09340588_corecrt_math@h DB 01H
__24E9E95F_stdlib@h DB 01H
__B0B2AE59_cstdlib DB 01H
__0CE2504A_cmath DB 01H
__F66CEB67_corecrt_stdio_config@h DB 01H
__101834BA_corecrt_wstdio@h DB 01H
__AD6A91B7_stdio@h DB 01H
__367CC694_corecrt_memcpy_s@h DB 01H
__35D7DDB3_corecrt_memory@h DB 01H
__DC9673E3_corecrt_wstring@h DB 01H
__A29A7DFB_string@h DB 01H
__5467428D_corecrt_wconio@h DB 01H
__4442441F_corecrt_wio@h DB 01H
__45F4AF76_corecrt_wtime@h DB 01H
__186FF47F_stat@h DB 01H
__534C724A_wchar@h DB 01H
__79389A52_type_traits DB 01H
__9DD7FB47_xutility DB 01H
__B0C4CEA9_malloc@h DB 01H
__E60FAE9C_vcruntime_exception@h DB 01H
__5E1BED6E_exception DB 01H
__E380AC8B_limits DB 01H
__ED2A4811_xmemory DB 01H
__99F9CE8D_xstring DB 01H
__D755D733_stdexcept DB 01H
__6D45D93D_xcall_once@h DB 01H
__D218CB1D_system_error DB 01H
__78FD32FC_vcruntime_typeinfo@h DB 01H
__ED08085E_typeinfo DB 01H
__5F2EA005_memory DB 01H
__736BF70A_xfacet DB 01H
__7242C389_ctype@h DB 01H
__F281EB96_xlocinfo DB 01H
__46C7BABC_xlocale DB 01H
__CB649C85_xiosbase DB 01H
__D840DCAB_xlocnum DB 01H
__593D1C9E_ios DB 01H
__F4091A14_Log@cpp DB 01H
__36075542_istream DB 01H
__55D76078_ostream DB 01H
__D5F56F8F_streambuf DB 01H
__8C7B4C07_iterator DB 01H
__2F69790D_iosfwd DB 01H
__87BF2BD2_utility DB 01H
__70A0BCC0_xstddef DB 01H
__541761B8_xatomic@h DB 01H
msvcjmc	ENDS
PUBLIC	?__empty_global_delete@@YAXPAX@Z		; __empty_global_delete
PUBLIC	?__empty_global_delete@@YAXPAXI@Z		; __empty_global_delete
PUBLIC	?multiply@@YAHHH@Z				; multiply
PUBLIC	?multiplyandlog@@YAXHH@Z			; multiplyandlog
PUBLIC	??$endl@DU?$char_traits@D@std@@@std@@YAAAV?$basic_ostream@DU?$char_traits@D@std@@@0@AAV10@@Z ; std::endl<char,std::char_traits<char> >
PUBLIC	__JustMyCode_Default
EXTRN	__imp_?widen@?$basic_ios@DU?$char_traits@D@std@@@std@@QBEDD@Z:PROC
EXTRN	__imp_??6?$basic_ostream@DU?$char_traits@D@std@@@std@@QAEAAV01@P6AAAV01@AAV01@@Z@Z:PROC
EXTRN	__imp_??6?$basic_ostream@DU?$char_traits@D@std@@@std@@QAEAAV01@H@Z:PROC
EXTRN	__imp_?put@?$basic_ostream@DU?$char_traits@D@std@@@std@@QAEAAV12@D@Z:PROC
EXTRN	__imp_?flush@?$basic_ostream@DU?$char_traits@D@std@@@std@@QAEAAV12@XZ:PROC
EXTRN	@__CheckForDebuggerJustMyCode@4:PROC
EXTRN	__imp_?cout@std@@3V?$basic_ostream@DU?$char_traits@D@std@@@1@A:BYTE
; Function compile flags: /Odt
;	COMDAT __JustMyCode_Default
_TEXT	SEGMENT
__JustMyCode_Default PROC				; COMDAT
	push	ebp
	mov	ebp, esp
	pop	ebp
	ret	0
__JustMyCode_Default ENDP
_TEXT	ENDS
; Function compile flags: /Ogtp
;	COMDAT ??$endl@DU?$char_traits@D@std@@@std@@YAAAV?$basic_ostream@DU?$char_traits@D@std@@@0@AAV10@@Z
_TEXT	SEGMENT
__Ostr$ = 8						; size = 4
??$endl@DU?$char_traits@D@std@@@std@@YAAAV?$basic_ostream@DU?$char_traits@D@std@@@0@AAV10@@Z PROC ; std::endl<char,std::char_traits<char> >, COMDAT
; File C:\Program Files (x86)\Microsoft Visual Studio\2019\Community\VC\Tools\MSVC\14.26.28801\include\ostream
; Line 981
	push	ebp
	mov	ebp, esp
	push	esi
	mov	ecx, OFFSET __55D76078_ostream
	call	@__CheckForDebuggerJustMyCode@4
	mov	esi, DWORD PTR __Ostr$[ebp]
	push	10					; 0000000aH
	mov	eax, DWORD PTR [esi]
	mov	ecx, DWORD PTR [eax+4]
	add	ecx, esi
	call	DWORD PTR __imp_?widen@?$basic_ios@DU?$char_traits@D@std@@@std@@QBEDD@Z
	movzx	ecx, al
	push	ecx
	mov	ecx, esi
	call	DWORD PTR __imp_?put@?$basic_ostream@DU?$char_traits@D@std@@@std@@QAEAAV12@D@Z
	mov	ecx, esi
	call	DWORD PTR __imp_?flush@?$basic_ostream@DU?$char_traits@D@std@@@std@@QAEAAV12@XZ
	mov	eax, esi
	pop	esi
; Line 985
	pop	ebp
	ret	0
??$endl@DU?$char_traits@D@std@@@std@@YAAAV?$basic_ostream@DU?$char_traits@D@std@@@0@AAV10@@Z ENDP ; std::endl<char,std::char_traits<char> >
_TEXT	ENDS
; Function compile flags: /Ogtp
;	COMDAT ?multiplyandlog@@YAXHH@Z
_TEXT	SEGMENT
_a$ = 8							; size = 4
_b$ = 12						; size = 4
?multiplyandlog@@YAXHH@Z PROC				; multiplyandlog, COMDAT
; File D:\VS2019Projects\C++\Helloworld\Helloworld\Log.cpp
; Line 10
	push	ebp
	mov	ebp, esp
	mov	ecx, OFFSET __F4091A14_Log@cpp
	call	@__CheckForDebuggerJustMyCode@4
; Line 6
	mov	eax, DWORD PTR _a$[ebp]
	imul	eax, DWORD PTR _b$[ebp]
; Line 13
	mov	ecx, DWORD PTR __imp_?cout@std@@3V?$basic_ostream@DU?$char_traits@D@std@@@1@A
	push	OFFSET ??$endl@DU?$char_traits@D@std@@@std@@YAAAV?$basic_ostream@DU?$char_traits@D@std@@@0@AAV10@@Z ; std::endl<char,std::char_traits<char> >
	push	eax
	call	DWORD PTR __imp_??6?$basic_ostream@DU?$char_traits@D@std@@@std@@QAEAAV01@H@Z
	mov	ecx, eax
	call	DWORD PTR __imp_??6?$basic_ostream@DU?$char_traits@D@std@@@std@@QAEAAV01@P6AAAV01@AAV01@@Z@Z
; Line 14
	pop	ebp
	ret	0
?multiplyandlog@@YAXHH@Z ENDP				; multiplyandlog
_TEXT	ENDS
; Function compile flags: /Ogtp
;	COMDAT ?multiply@@YAHHH@Z
_TEXT	SEGMENT
_a$ = 8							; size = 4
_b$ = 12						; size = 4
?multiply@@YAHHH@Z PROC					; multiply, COMDAT
; File D:\VS2019Projects\C++\Helloworld\Helloworld\Log.cpp
; Line 5
	push	ebp
	mov	ebp, esp
	mov	ecx, OFFSET __F4091A14_Log@cpp
	call	@__CheckForDebuggerJustMyCode@4
	mov	eax, DWORD PTR _a$[ebp]
	imul	eax, DWORD PTR _b$[ebp]
; Line 7
	pop	ebp
	ret	0
?multiply@@YAHHH@Z ENDP					; multiply
_TEXT	ENDS
; Function compile flags: /Ogtp
;	COMDAT ?__empty_global_delete@@YAXPAXI@Z
_TEXT	SEGMENT
___formal$ = 8						; size = 4
___formal$ = 12						; size = 4
?__empty_global_delete@@YAXPAXI@Z PROC			; __empty_global_delete, COMDAT
; File D:\VS2019Projects\C++\Helloworld\Helloworld\Log.cpp
	mov	ecx, OFFSET __F4091A14_Log@cpp
	jmp	@__CheckForDebuggerJustMyCode@4
?__empty_global_delete@@YAXPAXI@Z ENDP			; __empty_global_delete
_TEXT	ENDS
; Function compile flags: /Ogtp
;	COMDAT ?__empty_global_delete@@YAXPAX@Z
_TEXT	SEGMENT
___formal$ = 8						; size = 4
?__empty_global_delete@@YAXPAX@Z PROC			; __empty_global_delete, COMDAT
; File D:\VS2019Projects\C++\Helloworld\Helloworld\Log.cpp
	mov	ecx, OFFSET __F4091A14_Log@cpp
	jmp	@__CheckForDebuggerJustMyCode@4
?__empty_global_delete@@YAXPAX@Z ENDP			; __empty_global_delete
_TEXT	ENDS
END
